target datalayout = "e-m:e-p270:32:32-p271:32:32-p272:64:64-i64:64-i128:128-f80:128-n8:16:32:64-S128"
target triple = "x86_64-pc-linux-gnu"

%struct.tcache_slow_s = type { %struct.anon, %struct.cache_bin_array_descriptor_s, ptr, i32, [39 x i8], [39 x i8], [39 x i8], ptr, ptr }
%struct.anon = type { ptr, ptr }
%struct.cache_bin_array_descriptor_s = type { %struct.anon.0, ptr }
%struct.anon.0 = type { ptr, ptr }
%struct.tcache_s = type { ptr, [76 x %struct.cache_bin_s] }
%struct.cache_bin_s = type { ptr, %struct.cache_bin_stats_s, i16, i16, i16 }
%struct.cache_bin_stats_s = type { i64 }
%struct.cache_bin_info_s = type { i16 }

@je_opt_tcache_gc_delay_bytes = hidden global i64 0, align 8
@je_tcache_bin_info = hidden global ptr null, align 8
@je_nhbins = hidden global i32 0, align 4
@je_sz_index2size_tab = external global [235 x i64], align 16

; Function Attrs: alwaysinline nounwind uwtable
define internal i64 @sz_index2size_lookup_impl(i32 noundef %0) #1 {
  %2 = alloca i32, align 4
  store i32 %0, ptr %2, align 4, !tbaa !30
  %3 = load i32, ptr %2, align 4, !tbaa !30
  %4 = zext i32 %3 to i64
  %5 = getelementptr inbounds nuw [235 x i64], ptr @je_sz_index2size_tab, i64 0, i64 %4
  %6 = load i64, ptr %5, align 8, !tbaa !16
  ret i64 %6
}

; Function Attrs: alwaysinline nounwind uwtable
define internal i64 @sz_index2size_lookup(i32 noundef %0) #1 {
  %2 = alloca i32, align 4
  %3 = alloca i64, align 8
  store i32 %0, ptr %2, align 4, !tbaa !30
  call void @llvm.lifetime.start.p0(i64 8, ptr %3) #12
  %4 = load i32, ptr %2, align 4, !tbaa !30
  %5 = call i64 @sz_index2size_lookup_impl(i32 noundef %4)
  store i64 %5, ptr %3, align 8, !tbaa !16
  br label %6

6:                                                ; preds = %1
  br label %7

7:                                                ; preds = %6
  br label %8

8:                                                ; preds = %7
  %9 = load i64, ptr %3, align 8, !tbaa !16
  call void @llvm.lifetime.end.p0(i64 8, ptr %3) #12
  ret i64 %9
}

; Function Attrs: alwaysinline nounwind uwtable
define internal i64 @sz_index2size(i32 noundef %0) #1 {
  %2 = alloca i32, align 4
  store i32 %0, ptr %2, align 4, !tbaa !30
  br label %3

3:                                                ; preds = %1
  br label %4

4:                                                ; preds = %3
  %5 = load i32, ptr %2, align 4, !tbaa !30
  %6 = call i64 @sz_index2size_lookup(i32 noundef %5)
  ret i64 %6
}

; Function Attrs: nounwind uwtable
define internal zeroext i8 @tcache_gc_item_delay_compute(i32 noundef %0) #0 {
  %2 = alloca i32, align 4
  %3 = alloca i64, align 8
  %4 = alloca i64, align 8
  %5 = alloca i64, align 8
  store i32 %0, ptr %2, align 4, !tbaa !30
  br label %6

6:                                                ; preds = %1
  br label %7

7:                                                ; preds = %6
  call void @llvm.lifetime.start.p0(i64 8, ptr %3) #12
  %8 = load i32, ptr %2, align 4, !tbaa !30
  %9 = call i64 @sz_index2size(i32 noundef %8)
  store i64 %9, ptr %3, align 8, !tbaa !16
  call void @llvm.lifetime.start.p0(i64 8, ptr %4) #12
  %10 = load i64, ptr @je_opt_tcache_gc_delay_bytes, align 8, !tbaa !16
  %11 = load i64, ptr %3, align 8, !tbaa !16
  %12 = udiv i64 %10, %11
  store i64 %12, ptr %4, align 8, !tbaa !16
  call void @llvm.lifetime.start.p0(i64 8, ptr %5) #12
  store i64 256, ptr %5, align 8, !tbaa !16
  %13 = load i64, ptr %4, align 8, !tbaa !16
  %14 = load i64, ptr %5, align 8, !tbaa !16
  %15 = icmp uge i64 %13, %14
  br i1 %15, label %16, label %19

16:                                               ; preds = %7
  %17 = load i64, ptr %5, align 8, !tbaa !16
  %18 = sub i64 %17, 1
  store i64 %18, ptr %4, align 8, !tbaa !16
  br label %19

19:                                               ; preds = %16, %7
  %20 = load i64, ptr %4, align 8, !tbaa !16
  %21 = trunc i64 %20 to i8
  call void @llvm.lifetime.end.p0(i64 8, ptr %5) #12
  call void @llvm.lifetime.end.p0(i64 8, ptr %4) #12
  call void @llvm.lifetime.end.p0(i64 8, ptr %3) #12
  ret i8 %21
}

; Function Attrs: nounwind uwtable
define internal void @tcache_init(ptr noundef %0, ptr noundef %1, ptr noundef %2, ptr noundef %3) #0 {
  %5 = alloca ptr, align 8
  %6 = alloca ptr, align 8
  %7 = alloca ptr, align 8
  %8 = alloca ptr, align 8
  %9 = alloca i32, align 4
  %10 = alloca i64, align 8
  %11 = alloca i32, align 4
  %12 = alloca ptr, align 8
  %13 = alloca i32, align 4
  %14 = alloca ptr, align 8
  %15 = alloca ptr, align 8
  %16 = alloca i64, align 8
  store ptr %0, ptr %5, align 8, !tbaa !14
  store ptr %1, ptr %6, align 8, !tbaa !20
  store ptr %2, ptr %7, align 8, !tbaa !18
  store ptr %3, ptr %8, align 8, !tbaa !9
  %17 = load ptr, ptr %6, align 8, !tbaa !20
  %18 = load ptr, ptr %7, align 8, !tbaa !18
  %19 = getelementptr inbounds nuw %struct.tcache_s, ptr %18, i32 0, i32 0
  store ptr %17, ptr %19, align 8, !tbaa !43
  %20 = load ptr, ptr %7, align 8, !tbaa !18
  %21 = load ptr, ptr %6, align 8, !tbaa !20
  %22 = getelementptr inbounds nuw %struct.tcache_slow_s, ptr %21, i32 0, i32 8
  store ptr %20, ptr %22, align 8, !tbaa !129
  %23 = load ptr, ptr %6, align 8, !tbaa !20
  %24 = getelementptr inbounds nuw %struct.tcache_slow_s, ptr %23, i32 0, i32 0
  call void @llvm.memset.p0.i64(ptr align 8 %24, i8 0, i64 16, i1 false)
  %25 = load ptr, ptr %6, align 8, !tbaa !20
  %26 = getelementptr inbounds nuw %struct.tcache_slow_s, ptr %25, i32 0, i32 3
  store i32 0, ptr %26, align 8, !tbaa !22
  %27 = load ptr, ptr %6, align 8, !tbaa !20
  %28 = getelementptr inbounds nuw %struct.tcache_slow_s, ptr %27, i32 0, i32 2
  store ptr null, ptr %28, align 8, !tbaa !55
  %29 = load ptr, ptr %8, align 8, !tbaa !9
  %30 = load ptr, ptr %6, align 8, !tbaa !20
  %31 = getelementptr inbounds nuw %struct.tcache_slow_s, ptr %30, i32 0, i32 7
  store ptr %29, ptr %31, align 8, !tbaa !130
  call void @llvm.lifetime.start.p0(i64 4, ptr %9) #12
  %32 = load i32, ptr @je_nhbins, align 4, !tbaa !30
  %33 = zext i32 %32 to i64
  %34 = icmp ult i64 %33, 39
  br i1 %34, label %35, label %36

35:                                               ; preds = %4
  br label %39

36:                                               ; preds = %4
  %37 = load i32, ptr @je_nhbins, align 4, !tbaa !30
  %38 = zext i32 %37 to i64
  br label %39

39:                                               ; preds = %36, %35
  %40 = phi i64 [ 39, %35 ], [ %38, %36 ]
  %41 = trunc i64 %40 to i32
  store i32 %41, ptr %9, align 4, !tbaa !30
  %42 = load ptr, ptr %7, align 8, !tbaa !18
  %43 = getelementptr inbounds nuw %struct.tcache_s, ptr %42, i32 0, i32 1
  %44 = getelementptr inbounds [76 x %struct.cache_bin_s], ptr %43, i64 0, i64 0
  %45 = load i32, ptr %9, align 4, !tbaa !30
  %46 = zext i32 %45 to i64
  %47 = mul i64 24, %46
  call void @llvm.memset.p0.i64(ptr align 8 %44, i8 0, i64 %47, i1 false)
  call void @llvm.lifetime.start.p0(i64 8, ptr %10) #12
  store i64 0, ptr %10, align 8, !tbaa !16
  %48 = load ptr, ptr @je_tcache_bin_info, align 8, !tbaa !35
  %49 = load i32, ptr @je_nhbins, align 4, !tbaa !30
  %50 = load ptr, ptr %8, align 8, !tbaa !9
  call void @je_cache_bin_preincrement(ptr noundef %48, i32 noundef %49, ptr noundef %50, ptr noundef %10)
  call void @llvm.lifetime.start.p0(i64 4, ptr %11) #12
  store i32 0, ptr %11, align 4, !tbaa !30
  br label %51

51:                                               ; preds = %90, %39
  %52 = load i32, ptr %11, align 4, !tbaa !30
  %53 = load i32, ptr @je_nhbins, align 4, !tbaa !30
  %54 = icmp ult i32 %52, %53
  br i1 %54, label %56, label %55

55:                                               ; preds = %51
  call void @llvm.lifetime.end.p0(i64 4, ptr %11) #12
  br label %93

56:                                               ; preds = %51
  %57 = load i32, ptr %11, align 4, !tbaa !30
  %58 = zext i32 %57 to i64
  %59 = icmp ult i64 %58, 39
  br i1 %59, label %60, label %78

60:                                               ; preds = %56
  %61 = load ptr, ptr %6, align 8, !tbaa !20
  %62 = getelementptr inbounds nuw %struct.tcache_slow_s, ptr %61, i32 0, i32 4
  %63 = load i32, ptr %11, align 4, !tbaa !30
  %64 = zext i32 %63 to i64
  %65 = getelementptr inbounds nuw [39 x i8], ptr %62, i64 0, i64 %64
  store i8 1, ptr %65, align 1, !tbaa !39
  %66 = load ptr, ptr %6, align 8, !tbaa !20
  %67 = getelementptr inbounds nuw %struct.tcache_slow_s, ptr %66, i32 0, i32 5
  %68 = load i32, ptr %11, align 4, !tbaa !30
  %69 = zext i32 %68 to i64
  %70 = getelementptr inbounds nuw [39 x i8], ptr %67, i64 0, i64 %69
  store i8 0, ptr %70, align 1, !tbaa !31
  %71 = load i32, ptr %11, align 4, !tbaa !30
  %72 = call zeroext i8 @tcache_gc_item_delay_compute(i32 noundef %71)
  %73 = load ptr, ptr %6, align 8, !tbaa !20
  %74 = getelementptr inbounds nuw %struct.tcache_slow_s, ptr %73, i32 0, i32 6
  %75 = load i32, ptr %11, align 4, !tbaa !30
  %76 = zext i32 %75 to i64
  %77 = getelementptr inbounds nuw [39 x i8], ptr %74, i64 0, i64 %76
  store i8 %72, ptr %77, align 1, !tbaa !39
  br label %78

78:                                               ; preds = %60, %56
  call void @llvm.lifetime.start.p0(i64 8, ptr %12) #12
  %79 = load ptr, ptr %7, align 8, !tbaa !18
  %80 = getelementptr inbounds nuw %struct.tcache_s, ptr %79, i32 0, i32 1
  %81 = load i32, ptr %11, align 4, !tbaa !30
  %82 = zext i32 %81 to i64
  %83 = getelementptr inbounds nuw [76 x %struct.cache_bin_s], ptr %80, i64 0, i64 %82
  store ptr %83, ptr %12, align 8, !tbaa !32
  %84 = load ptr, ptr %12, align 8, !tbaa !32
  %85 = load ptr, ptr @je_tcache_bin_info, align 8, !tbaa !35
  %86 = load i32, ptr %11, align 4, !tbaa !30
  %87 = zext i32 %86 to i64
  %88 = getelementptr inbounds nuw %struct.cache_bin_info_s, ptr %85, i64 %87
  %89 = load ptr, ptr %8, align 8, !tbaa !9
  call void @je_cache_bin_init(ptr noundef %84, ptr noundef %88, ptr noundef %89, ptr noundef %10)
  call void @llvm.lifetime.end.p0(i64 8, ptr %12) #12
  br label %90

90:                                               ; preds = %78
  %91 = load i32, ptr %11, align 4, !tbaa !30
  %92 = add i32 %91, 1
  store i32 %92, ptr %11, align 4, !tbaa !30
  br label %51, !llvm.loop !131

93:                                               ; preds = %55
  call void @llvm.lifetime.start.p0(i64 4, ptr %13) #12
  %94 = load i32, ptr @je_nhbins, align 4, !tbaa !30
  store i32 %94, ptr %13, align 4, !tbaa !30
  br label %95

95:                                               ; preds = %116, %93
  %96 = load i32, ptr %13, align 4, !tbaa !30
  %97 = zext i32 %96 to i64
  %98 = icmp ult i64 %97, 39
  br i1 %98, label %100, label %99

99:                                               ; preds = %95
  call void @llvm.lifetime.end.p0(i64 4, ptr %13) #12
  br label %119

100:                                              ; preds = %95
  call void @llvm.lifetime.start.p0(i64 8, ptr %14) #12
  %101 = load ptr, ptr %7, align 8, !tbaa !18
  %102 = getelementptr inbounds nuw %struct.tcache_s, ptr %101, i32 0, i32 1
  %103 = load i32, ptr %13, align 4, !tbaa !30
  %104 = zext i32 %103 to i64
  %105 = getelementptr inbounds nuw [76 x %struct.cache_bin_s], ptr %102, i64 0, i64 %104
  store ptr %105, ptr %14, align 8, !tbaa !32
  call void @llvm.lifetime.start.p0(i64 8, ptr %15) #12
  %106 = load ptr, ptr %8, align 8, !tbaa !9
  store ptr %106, ptr %15, align 8, !tbaa !9
  call void @llvm.lifetime.start.p0(i64 8, ptr %16) #12
  store i64 0, ptr %16, align 8, !tbaa !16
  %107 = load ptr, ptr %14, align 8, !tbaa !32
  %108 = load ptr, ptr @je_tcache_bin_info, align 8, !tbaa !35
  %109 = load i32, ptr %13, align 4, !tbaa !30
  %110 = zext i32 %109 to i64
  %111 = getelementptr inbounds nuw %struct.cache_bin_info_s, ptr %108, i64 %110
  %112 = load ptr, ptr %15, align 8, !tbaa !9
  call void @je_cache_bin_init(ptr noundef %107, ptr noundef %111, ptr noundef %112, ptr noundef %16)
  br label %113

113:                                              ; preds = %100
  br label %114

114:                                              ; preds = %113
  br label %115

115:                                              ; preds = %114
  call void @llvm.lifetime.end.p0(i64 8, ptr %16) #12
  call void @llvm.lifetime.end.p0(i64 8, ptr %15) #12
  call void @llvm.lifetime.end.p0(i64 8, ptr %14) #12
  br label %116

116:                                              ; preds = %115
  %117 = load i32, ptr %13, align 4, !tbaa !30
  %118 = add i32 %117, 1
  store i32 %118, ptr %13, align 4, !tbaa !30
  br label %95, !llvm.loop !132

119:                                              ; preds = %99
  %120 = load ptr, ptr @je_tcache_bin_info, align 8, !tbaa !35
  %121 = load i32, ptr @je_nhbins, align 4, !tbaa !30
  %122 = load ptr, ptr %8, align 8, !tbaa !9
  call void @je_cache_bin_postincrement(ptr noundef %120, i32 noundef %121, ptr noundef %122, ptr noundef %10)
  br label %123

123:                                              ; preds = %119
  br label %124

124:                                              ; preds = %123
  br label %125

125:                                              ; preds = %124
  call void @llvm.lifetime.end.p0(i64 8, ptr %10) #12
  call void @llvm.lifetime.end.p0(i64 4, ptr %9) #12
  ret void
}