; Function Attrs: nounwind uwtable
define internal fastcc void @tcache_init(ptr noundef %0, ptr noundef initializes((0, 8)) %1, ptr noundef nonnull %2) unnamed_addr #0 {
  %4 = alloca i64, align 8
  %5 = alloca i64, align 8
  store ptr %0, ptr %1, align 8, !tbaa !47
  %6 = getelementptr inbounds nuw i8, ptr %0, i64 184
  store ptr %1, ptr %6, align 8, !tbaa !140
  tail call void @llvm.memset.p0.i64(ptr noundef nonnull align 8 dereferenceable(16) %0, i8 0, i64 16, i1 false)
  %7 = getelementptr inbounds nuw i8, ptr %0, i64 48
  store i32 0, ptr %7, align 8, !tbaa !24
  %8 = getelementptr inbounds nuw i8, ptr %0, i64 40
  store ptr null, ptr %8, align 8, !tbaa !53
  %9 = getelementptr inbounds nuw i8, ptr %0, i64 176
  store ptr %2, ptr %9, align 8, !tbaa !151
  %10 = load i32, ptr @je_nhbins, align 4, !tbaa !46
  %11 = tail call i32 @llvm.umax.i32(i32 %10, i32 39)
  %12 = getelementptr inbounds nuw i8, ptr %1, i64 8
  %13 = zext i32 %11 to i64
  %14 = mul nuw nsw i64 %13, 24
  tail call void @llvm.memset.p0.i64(ptr noundef nonnull align 8 dereferenceable(1) %12, i8 0, i64 %14, i1 false)
  call void @llvm.lifetime.start.p0(i64 8, ptr nonnull %4) #14
  store i64 0, ptr %4, align 8, !tbaa !19
  %15 = load ptr, ptr @je_tcache_bin_info, align 8, !tbaa !42
  call void @je_cache_bin_preincrement(ptr noundef %15, i32 noundef %10, ptr noundef nonnull %2, ptr noundef nonnull %4) #14
  %16 = load i32, ptr @je_nhbins, align 4, !tbaa !46
  %.not = icmp eq i32 %16, 0
  br i1 %.not, label %.lr.ph3.preheader, label %.lr.ph

.lr.ph:                                           ; preds = %3
  %17 = getelementptr inbounds nuw i8, ptr %0, i64 52
  %18 = getelementptr inbounds nuw i8, ptr %0, i64 91
  %19 = getelementptr inbounds nuw i8, ptr %0, i64 130
  br label %23

.preheader:                                       ; preds = %34
  %20 = icmp ult i32 %38, 39
  br i1 %20, label %.lr.ph3.preheader, label %._crit_edge

.lr.ph3.preheader:                                ; preds = %3, %.preheader
  %21 = phi i32 [ %38, %.preheader ], [ 0, %3 ]
  %22 = zext nneg i32 %21 to i64
  br label %.lr.ph3

23:                                               ; preds = %.lr.ph, %34
  %indvars.iv = phi i64 [ 0, %.lr.ph ], [ %indvars.iv.next, %34 ]
  %24 = icmp samesign ult i64 %indvars.iv, 39
  br i1 %24, label %25, label %34

25:                                               ; preds = %23
  %26 = getelementptr inbounds nuw [39 x i8], ptr %17, i64 0, i64 %indvars.iv
  store i8 1, ptr %26, align 1, !tbaa !40
  %27 = getelementptr inbounds nuw [39 x i8], ptr %18, i64 0, i64 %indvars.iv
  store i8 0, ptr %27, align 1, !tbaa !20
  %28 = getelementptr inbounds nuw [235 x i64], ptr @je_sz_index2size_tab, i64 0, i64 %indvars.iv
  %29 = load i64, ptr %28, align 8, !tbaa !19
  %30 = load i64, ptr @je_opt_tcache_gc_delay_bytes, align 8, !tbaa !19
  %31 = udiv i64 %30, %29
  %spec.select.i = call i64 @llvm.umin.i64(i64 %31, i64 255)
  %32 = trunc nuw i64 %spec.select.i to i8
  %33 = getelementptr inbounds nuw [39 x i8], ptr %19, i64 0, i64 %indvars.iv
  store i8 %32, ptr %33, align 1, !tbaa !40
  br label %34

34:                                               ; preds = %25, %23
  %35 = getelementptr inbounds nuw [76 x %struct.cache_bin_s], ptr %12, i64 0, i64 %indvars.iv
  %36 = load ptr, ptr @je_tcache_bin_info, align 8, !tbaa !42
  %37 = getelementptr inbounds nuw %struct.cache_bin_info_s, ptr %36, i64 %indvars.iv
  call void @je_cache_bin_init(ptr noundef nonnull %35, ptr noundef %37, ptr noundef nonnull %2, ptr noundef nonnull %4) #14
  %indvars.iv.next = add nuw nsw i64 %indvars.iv, 1
  %38 = load i32, ptr @je_nhbins, align 4, !tbaa !46
  %39 = zext i32 %38 to i64
  %40 = icmp samesign ult i64 %indvars.iv.next, %39
  br i1 %40, label %23, label %.preheader, !llvm.loop !152

._crit_edge.loopexit:                             ; preds = %.lr.ph3
  %.pre = load i32, ptr @je_nhbins, align 4, !tbaa !46
  br label %._crit_edge

._crit_edge:                                      ; preds = %._crit_edge.loopexit, %.preheader
  %41 = phi i32 [ %.pre, %._crit_edge.loopexit ], [ %38, %.preheader ]
  %42 = load ptr, ptr @je_tcache_bin_info, align 8, !tbaa !42
  call void @je_cache_bin_postincrement(ptr noundef %42, i32 noundef %41, ptr noundef nonnull %2, ptr noundef nonnull %4) #14
  call void @llvm.lifetime.end.p0(i64 8, ptr nonnull %4) #14
  ret void

.lr.ph3:                                          ; preds = %.lr.ph3.preheader, %.lr.ph3
  %indvars.iv6 = phi i64 [ %22, %.lr.ph3.preheader ], [ %indvars.iv.next7, %.lr.ph3 ]
  %43 = getelementptr inbounds nuw [76 x %struct.cache_bin_s], ptr %12, i64 0, i64 %indvars.iv6
  call void @llvm.lifetime.start.p0(i64 8, ptr nonnull %5) #14
  store i64 0, ptr %5, align 8, !tbaa !19
  %44 = load ptr, ptr @je_tcache_bin_info, align 8, !tbaa !42
  %45 = getelementptr inbounds nuw %struct.cache_bin_info_s, ptr %44, i64 %indvars.iv6
  call void @je_cache_bin_init(ptr noundef nonnull %43, ptr noundef %45, ptr noundef nonnull %2, ptr noundef nonnull %5) #14
  call void @llvm.lifetime.end.p0(i64 8, ptr nonnull %5) #14
  %indvars.iv.next7 = add nuw nsw i64 %indvars.iv6, 1
  %46 = and i64 %indvars.iv.next7, 4294967295
  %exitcond.not = icmp eq i64 %46, 39
  br i1 %exitcond.not, label %._crit_edge.loopexit, label %.lr.ph3, !llvm.loop !153
}